target datalayout = "e-m:e-p270:32:32-p271:32:32-p272:64:64-i64:64-i128:128-f80:128-n8:16:32:64-S128"
target triple = "x86_64-pc-linux-gnu"

@proto_ppi = internal global i32 0, align 4
@ppi_handle = internal global ptr null, align 8
@.str.268 = private unnamed_addr constant [11 x i8] c"wlan_radio\00", align 1
@ieee80211_radio_handle = internal global ptr null, align 8
@.str.269 = private unnamed_addr constant [13 x i8] c"pcap_pktdata\00", align 1
@pcap_pktdata_handle = internal global ptr null, align 8
@.str.270 = private unnamed_addr constant [8 x i8] c"ppi_gps\00", align 1
@ppi_gps_handle = internal global ptr null, align 8
@.str.271 = private unnamed_addr constant [11 x i8] c"ppi_vector\00", align 1
@ppi_vector_handle = internal global ptr null, align 8
@.str.272 = private unnamed_addr constant [11 x i8] c"ppi_sensor\00", align 1
@ppi_sensor_handle = internal global ptr null, align 8
@.str.273 = private unnamed_addr constant [12 x i8] c"ppi_antenna\00", align 1
@ppi_antenna_handle = internal global ptr null, align 8
@.str.274 = private unnamed_addr constant [9 x i8] c"ppi_fnet\00", align 1
@ppi_fnet_handle = internal global ptr null, align 8
@.str.275 = private unnamed_addr constant [11 x i8] c"wtap_encap\00", align 1

; Function Attrs: null_pointer_is_valid sspstrong uwtable
define hidden void @proto_reg_handoff_ppi() #0 {
  %1 = alloca ptr, align 8
  call void @llvm.lifetime.start.p0(i64 8, ptr %1) #8
  %2 = load i32, ptr @proto_ppi, align 4
  %3 = call ptr @find_dissector_add_dependency(ptr noundef @.str.268, i32 noundef %2)
  store ptr %3, ptr @ieee80211_radio_handle, align 8
  %4 = load i32, ptr @proto_ppi, align 4
  %5 = call ptr @find_dissector_add_dependency(ptr noundef @.str.269, i32 noundef %4)
  store ptr %5, ptr @pcap_pktdata_handle, align 8
  %6 = load i32, ptr @proto_ppi, align 4
  %7 = call ptr @find_dissector_add_dependency(ptr noundef @.str.270, i32 noundef %6)
  store ptr %7, ptr @ppi_gps_handle, align 8
  %8 = load i32, ptr @proto_ppi, align 4
  %9 = call ptr @find_dissector_add_dependency(ptr noundef @.str.271, i32 noundef %8)
  store ptr %9, ptr @ppi_vector_handle, align 8
  %10 = load i32, ptr @proto_ppi, align 4
  %11 = call ptr @find_dissector_add_dependency(ptr noundef @.str.272, i32 noundef %10)
  store ptr %11, ptr @ppi_sensor_handle, align 8
  %12 = load i32, ptr @proto_ppi, align 4
  %13 = call ptr @find_dissector_add_dependency(ptr noundef @.str.273, i32 noundef %12)
  store ptr %13, ptr @ppi_antenna_handle, align 8
  %14 = load i32, ptr @proto_ppi, align 4
  %15 = call ptr @find_dissector_add_dependency(ptr noundef @.str.274, i32 noundef %14)
  store ptr %15, ptr @ppi_fnet_handle, align 8
  %16 = load ptr, ptr @ppi_handle, align 8
  call void @dissector_add_uint(ptr noundef @.str.275, i32 noundef 97, ptr noundef %16)
  %17 = load i32, ptr @proto_ppi, align 4
  %18 = call ptr @create_capture_dissector_handle(ptr noundef @capture_ppi, i32 noundef %17)
  store ptr %18, ptr %1, align 8
  %19 = load ptr, ptr %1, align 8
  call void @capture_dissector_add_uint(ptr noundef @.str.275, i32 noundef 97, ptr noundef %19)
  call void @llvm.lifetime.end.p0(i64 8, ptr %1) #8
  ret void
}