; Function Attrs: null_pointer_is_valid sspstrong uwtable
define hidden void @proto_reg_handoff_ppi() local_unnamed_addr #0 {
  %1 = load i32, ptr @proto_ppi, align 4
  %2 = tail call ptr @find_dissector_add_dependency(ptr noundef nonnull @.str.268, i32 noundef %1)
  store ptr %2, ptr @ieee80211_radio_handle, align 8
  %3 = load i32, ptr @proto_ppi, align 4
  %4 = tail call ptr @find_dissector_add_dependency(ptr noundef nonnull @.str.269, i32 noundef %3)
  store ptr %4, ptr @pcap_pktdata_handle, align 8
  %5 = load i32, ptr @proto_ppi, align 4
  %6 = tail call ptr @find_dissector_add_dependency(ptr noundef nonnull @.str.270, i32 noundef %5)
  store ptr %6, ptr @ppi_gps_handle, align 8
  %7 = load i32, ptr @proto_ppi, align 4
  %8 = tail call ptr @find_dissector_add_dependency(ptr noundef nonnull @.str.271, i32 noundef %7)
  store ptr %8, ptr @ppi_vector_handle, align 8
  %9 = load i32, ptr @proto_ppi, align 4
  %10 = tail call ptr @find_dissector_add_dependency(ptr noundef nonnull @.str.272, i32 noundef %9)
  store ptr %10, ptr @ppi_sensor_handle, align 8
  %11 = load i32, ptr @proto_ppi, align 4
  %12 = tail call ptr @find_dissector_add_dependency(ptr noundef nonnull @.str.273, i32 noundef %11)
  store ptr %12, ptr @ppi_antenna_handle, align 8
  %13 = load i32, ptr @proto_ppi, align 4
  %14 = tail call ptr @find_dissector_add_dependency(ptr noundef nonnull @.str.274, i32 noundef %13)
  store ptr %14, ptr @ppi_fnet_handle, align 8
  %15 = load ptr, ptr @ppi_handle, align 8
  tail call void @dissector_add_uint(ptr noundef nonnull @.str.275, i32 noundef 97, ptr noundef %15)
  %16 = load i32, ptr @proto_ppi, align 4
  %17 = tail call ptr @create_capture_dissector_handle(ptr noundef nonnull @capture_ppi, i32 noundef %16)
  tail call void @capture_dissector_add_uint(ptr noundef nonnull @.str.275, i32 noundef 97, ptr noundef %17)
  ret void
}